target datalayout = "e-m:e-p270:32:32-p271:32:32-p272:64:64-i64:64-i128:128-f80:128-n8:16:32:64-S128"
target triple = "x86_64-pc-linux-gnu"

%struct.slurm_cred_arg_t = type { %struct.slurm_step_id_msg, i32, i32, ptr, i16, ptr, ptr, ptr, i32, ptr, ptr, ptr, ptr, ptr, ptr, ptr, i16, i64, ptr, ptr, ptr, ptr, ptr, i32, i32, ptr, i32, i16, ptr, ptr, ptr, i16, ptr, i64, ptr, ptr, ptr, i16, ptr, ptr, ptr, ptr, i32, ptr, ptr }
%struct.slurm_step_id_msg = type { i64, i32, i32, i32 }
%struct.job_record = type { i32, ptr, ptr, ptr, ptr, i16, i32, i32, i32, ptr, i32, ptr, ptr, i16, ptr, double, i64, ptr, ptr, ptr, ptr, ptr, ptr, i32, ptr, i32, i64, i64, i32, i32, ptr, i16, i64, i64, i8, i32, ptr, ptr, ptr, ptr, ptr, ptr, ptr, ptr, i32, ptr, ptr, i32, ptr, i32, ptr, i32, ptr, i32, ptr, ptr, ptr, ptr, ptr, ptr, i32, i16, i64, ptr, ptr, ptr, ptr, %struct.acct_policy_limit_set_t, i16, ptr, ptr, ptr, ptr, ptr, i32, ptr, ptr, ptr, ptr, ptr, i32, i32, ptr, ptr, ptr, i16, ptr, ptr, i8, ptr, ptr, i64, i64, i8, i32, i32, i8, i32, ptr, i32, i64, i32, ptr, ptr, ptr, i8, i16, i64, i32, ptr, ptr, ptr, ptr, ptr, i16, i32, ptr, ptr, ptr, ptr, i32, ptr, i32, i16, i64, ptr, i32, i32, ptr, i64, ptr, ptr, i64, i32, i32, i64, i32, i32, ptr, ptr, ptr, ptr, ptr, ptr, ptr, ptr, ptr, ptr, ptr, ptr, i32, ptr, i16, i16, i16, i16, ptr, i32, i32, i8, i64 }
%struct.acct_policy_limit_set_t = type { i16, i16, ptr }
%struct.job_details_t = type { i32, ptr, i64, ptr, i32, ptr, i64, ptr, i16, i16, ptr, i16, i32, i32, i32, i16, ptr, i16, ptr, ptr, ptr, i16, ptr, ptr, ptr, ptr, i32, ptr, ptr, ptr, ptr, ptr, i32, i32, i32, ptr, ptr, i16, i32, i32, i32, i32, i32, i32, i16, i16, i32, i8, i8, i32, i32, i64, i64, i16, i32, ptr, ptr, i8, ptr, i32, ptr, i64, ptr, ptr, i16, i16, i16, i8, ptr, ptr, ptr, ptr, ptr, ptr, i64, i32, i32, i8, ptr, i16, ptr, ptr, i16 }
%struct.job_resources = type { ptr, ptr, i32, ptr, ptr, ptr, ptr, ptr, i16, ptr, ptr, i32, i32, ptr, i32, ptr, i32, ptr, ptr, ptr, i16, i8 }
%struct.part_record = type { i32, ptr, ptr, ptr, ptr, ptr, ptr, i32, ptr, ptr, ptr, ptr, ptr, i32, i64, i32, ptr, ptr, ptr, ptr, ptr, i32, i32, ptr, i32, i32, i64, i32, i32, i16, i32, i32, i32, i32, ptr, ptr, ptr, ptr, ptr, double, i16, i16, i16, i16, ptr, ptr, i16, i16, i32, i16, i32, i32, i32, i32, i16, ptr, ptr, ptr }

; Function Attrs: nounwind uwtable
define dso_local void @setup_cred_arg(ptr noundef %0, ptr noundef %1) #0 {
  %3 = alloca ptr, align 8
  %4 = alloca ptr, align 8
  %5 = alloca ptr, align 8
  store ptr %0, ptr %3, align 8
  store ptr %1, ptr %4, align 8
  %6 = load ptr, ptr %3, align 8
  call void @llvm.memset.p0.i64(ptr align 8 %6, i8 0, i64 352, i1 false)
  %7 = load ptr, ptr %4, align 8
  %8 = getelementptr inbounds nuw %struct.job_record, ptr %7, i32 0, i32 54
  %9 = load ptr, ptr %8, align 8
  %10 = load ptr, ptr %3, align 8
  %11 = getelementptr inbounds nuw %struct.slurm_cred_arg_t, ptr %10, i32 0, i32 3
  store ptr %9, ptr %11, align 8
  %12 = load ptr, ptr %4, align 8
  %13 = getelementptr inbounds nuw %struct.job_record, ptr %12, i32 0, i32 47
  %14 = load i32, ptr %13, align 8
  %15 = load ptr, ptr %3, align 8
  %16 = getelementptr inbounds nuw %struct.slurm_cred_arg_t, ptr %15, i32 0, i32 2
  store i32 %14, ptr %16, align 4
  %17 = load ptr, ptr %4, align 8
  %18 = getelementptr inbounds nuw %struct.job_record, ptr %17, i32 0, i32 1
  %19 = load ptr, ptr %18, align 8
  %20 = load ptr, ptr %3, align 8
  %21 = getelementptr inbounds nuw %struct.slurm_cred_arg_t, ptr %20, i32 0, i32 11
  store ptr %19, ptr %21, align 8
  %22 = load ptr, ptr %4, align 8
  %23 = getelementptr inbounds nuw %struct.job_record, ptr %22, i32 0, i32 3
  %24 = load ptr, ptr %23, align 8
  %25 = load ptr, ptr %3, align 8
  %26 = getelementptr inbounds nuw %struct.slurm_cred_arg_t, ptr %25, i32 0, i32 12
  store ptr %24, ptr %26, align 8
  %27 = load ptr, ptr %4, align 8
  %28 = getelementptr inbounds nuw %struct.job_record, ptr %27, i32 0, i32 20
  %29 = load ptr, ptr %28, align 8
  %30 = load ptr, ptr %3, align 8
  %31 = getelementptr inbounds nuw %struct.slurm_cred_arg_t, ptr %30, i32 0, i32 13
  store ptr %29, ptr %31, align 8
  %32 = load ptr, ptr %4, align 8
  %33 = getelementptr inbounds nuw %struct.job_record, ptr %32, i32 0, i32 32
  %34 = load i64, ptr %33, align 8
  %35 = load ptr, ptr %3, align 8
  %36 = getelementptr inbounds nuw %struct.slurm_cred_arg_t, ptr %35, i32 0, i32 17
  store i64 %34, ptr %36, align 8
  %37 = load ptr, ptr %4, align 8
  %38 = getelementptr inbounds nuw %struct.job_record, ptr %37, i32 0, i32 36
  %39 = load ptr, ptr %38, align 8
  %40 = load ptr, ptr %3, align 8
  %41 = getelementptr inbounds nuw %struct.slurm_cred_arg_t, ptr %40, i32 0, i32 18
  store ptr %39, ptr %41, align 8
  %42 = load ptr, ptr %4, align 8
  %43 = getelementptr inbounds nuw %struct.job_record, ptr %42, i32 0, i32 43
  %44 = load ptr, ptr %43, align 8
  %45 = load ptr, ptr %3, align 8
  %46 = getelementptr inbounds nuw %struct.slurm_cred_arg_t, ptr %45, i32 0, i32 28
  store ptr %44, ptr %46, align 8
  %47 = load ptr, ptr %4, align 8
  %48 = getelementptr inbounds nuw %struct.job_record, ptr %47, i32 0, i32 63
  %49 = load ptr, ptr %48, align 8
  %50 = load ptr, ptr %3, align 8
  %51 = getelementptr inbounds nuw %struct.slurm_cred_arg_t, ptr %50, i32 0, i32 20
  store ptr %49, ptr %51, align 8
  %52 = load ptr, ptr %4, align 8
  %53 = getelementptr inbounds nuw %struct.job_record, ptr %52, i32 0, i32 76
  %54 = load ptr, ptr %53, align 8
  %55 = load ptr, ptr %3, align 8
  %56 = getelementptr inbounds nuw %struct.slurm_cred_arg_t, ptr %55, i32 0, i32 25
  store ptr %54, ptr %56, align 8
  %57 = load ptr, ptr %4, align 8
  %58 = getelementptr inbounds nuw %struct.job_record, ptr %57, i32 0, i32 110
  %59 = load ptr, ptr %58, align 8
  %60 = load ptr, ptr %3, align 8
  %61 = getelementptr inbounds nuw %struct.slurm_cred_arg_t, ptr %60, i32 0, i32 30
  store ptr %59, ptr %61, align 8
  %62 = load ptr, ptr %4, align 8
  %63 = getelementptr inbounds nuw %struct.job_record, ptr %62, i32 0, i32 106
  %64 = load i16, ptr %63, align 2
  %65 = load ptr, ptr %3, align 8
  %66 = getelementptr inbounds nuw %struct.slurm_cred_arg_t, ptr %65, i32 0, i32 31
  store i16 %64, ptr %66, align 8
  %67 = load ptr, ptr %4, align 8
  %68 = getelementptr inbounds nuw %struct.job_record, ptr %67, i32 0, i32 119
  %69 = load ptr, ptr %68, align 8
  %70 = load ptr, ptr %3, align 8
  %71 = getelementptr inbounds nuw %struct.slurm_cred_arg_t, ptr %70, i32 0, i32 32
  store ptr %69, ptr %71, align 8
  %72 = load ptr, ptr %4, align 8
  %73 = getelementptr inbounds nuw %struct.job_record, ptr %72, i32 0, i32 124
  %74 = load i64, ptr %73, align 8
  %75 = load ptr, ptr %3, align 8
  %76 = getelementptr inbounds nuw %struct.slurm_cred_arg_t, ptr %75, i32 0, i32 33
  store i64 %74, ptr %76, align 8
  %77 = load ptr, ptr %4, align 8
  %78 = getelementptr inbounds nuw %struct.job_record, ptr %77, i32 0, i32 150
  %79 = load i32, ptr %78, align 8
  %80 = load ptr, ptr %3, align 8
  %81 = getelementptr inbounds nuw %struct.slurm_cred_arg_t, ptr %80, i32 0, i32 1
  store i32 %79, ptr %81, align 8
  %82 = load ptr, ptr %4, align 8
  %83 = getelementptr inbounds nuw %struct.job_record, ptr %82, i32 0, i32 30
  %84 = load ptr, ptr %83, align 8
  %85 = icmp ne ptr %84, null
  br i1 %85, label %86, label %140

86:                                               ; preds = %2
  %87 = load ptr, ptr %4, align 8
  %88 = getelementptr inbounds nuw %struct.job_record, ptr %87, i32 0, i32 30
  %89 = load ptr, ptr %88, align 8
  %90 = getelementptr inbounds nuw %struct.job_details_t, ptr %89, i32 0, i32 30
  %91 = load ptr, ptr %90, align 8
  %92 = load ptr, ptr %3, align 8
  %93 = getelementptr inbounds nuw %struct.slurm_cred_arg_t, ptr %92, i32 0, i32 14
  store ptr %91, ptr %93, align 8
  %94 = load ptr, ptr %4, align 8
  %95 = getelementptr inbounds nuw %struct.job_record, ptr %94, i32 0, i32 30
  %96 = load ptr, ptr %95, align 8
  %97 = getelementptr inbounds nuw %struct.job_details_t, ptr %96, i32 0, i32 9
  %98 = load i16, ptr %97, align 2
  %99 = load ptr, ptr %3, align 8
  %100 = getelementptr inbounds nuw %struct.slurm_cred_arg_t, ptr %99, i32 0, i32 16
  store i16 %98, ptr %100, align 8
  %101 = load ptr, ptr %4, align 8
  %102 = getelementptr inbounds nuw %struct.job_record, ptr %101, i32 0, i32 30
  %103 = load ptr, ptr %102, align 8
  %104 = getelementptr inbounds nuw %struct.job_details_t, ptr %103, i32 0, i32 46
  %105 = load i32, ptr %104, align 8
  %106 = load ptr, ptr %3, align 8
  %107 = getelementptr inbounds nuw %struct.slurm_cred_arg_t, ptr %106, i32 0, i32 26
  store i32 %105, ptr %107, align 8
  %108 = load ptr, ptr %4, align 8
  %109 = call zeroext i16 @get_job_share_value(ptr noundef %108)
  %110 = load ptr, ptr %3, align 8
  %111 = getelementptr inbounds nuw %struct.slurm_cred_arg_t, ptr %110, i32 0, i32 27
  store i16 %109, ptr %111, align 4
  %112 = load ptr, ptr %4, align 8
  %113 = getelementptr inbounds nuw %struct.job_record, ptr %112, i32 0, i32 30
  %114 = load ptr, ptr %113, align 8
  %115 = getelementptr inbounds nuw %struct.job_details_t, ptr %114, i32 0, i32 70
  %116 = load ptr, ptr %115, align 8
  %117 = load ptr, ptr %3, align 8
  %118 = getelementptr inbounds nuw %struct.slurm_cred_arg_t, ptr %117, i32 0, i32 34
  store ptr %116, ptr %118, align 8
  %119 = load ptr, ptr %4, align 8
  %120 = getelementptr inbounds nuw %struct.job_record, ptr %119, i32 0, i32 30
  %121 = load ptr, ptr %120, align 8
  %122 = getelementptr inbounds nuw %struct.job_details_t, ptr %121, i32 0, i32 71
  %123 = load ptr, ptr %122, align 8
  %124 = load ptr, ptr %3, align 8
  %125 = getelementptr inbounds nuw %struct.slurm_cred_arg_t, ptr %124, i32 0, i32 35
  store ptr %123, ptr %125, align 8
  %126 = load ptr, ptr %4, align 8
  %127 = getelementptr inbounds nuw %struct.job_record, ptr %126, i32 0, i32 30
  %128 = load ptr, ptr %127, align 8
  %129 = getelementptr inbounds nuw %struct.job_details_t, ptr %128, i32 0, i32 72
  %130 = load ptr, ptr %129, align 8
  %131 = load ptr, ptr %3, align 8
  %132 = getelementptr inbounds nuw %struct.slurm_cred_arg_t, ptr %131, i32 0, i32 36
  store ptr %130, ptr %132, align 8
  %133 = load ptr, ptr %4, align 8
  %134 = getelementptr inbounds nuw %struct.job_record, ptr %133, i32 0, i32 30
  %135 = load ptr, ptr %134, align 8
  %136 = getelementptr inbounds nuw %struct.job_details_t, ptr %135, i32 0, i32 79
  %137 = load i16, ptr %136, align 8
  %138 = load ptr, ptr %3, align 8
  %139 = getelementptr inbounds nuw %struct.slurm_cred_arg_t, ptr %138, i32 0, i32 37
  store i16 %137, ptr %139, align 8
  br label %140

140:                                              ; preds = %86, %2
  %141 = load ptr, ptr %4, align 8
  %142 = getelementptr inbounds nuw %struct.job_record, ptr %141, i32 0, i32 59
  %143 = load ptr, ptr %142, align 8
  %144 = icmp ne ptr %143, null
  br i1 %144, label %145, label %194

145:                                              ; preds = %140
  call void @llvm.lifetime.start.p0(i64 8, ptr %5) #9
  %146 = load ptr, ptr %4, align 8
  %147 = getelementptr inbounds nuw %struct.job_record, ptr %146, i32 0, i32 59
  %148 = load ptr, ptr %147, align 8
  store ptr %148, ptr %5, align 8
  %149 = load ptr, ptr %5, align 8
  %150 = getelementptr inbounds nuw %struct.job_resources, ptr %149, i32 0, i32 7
  %151 = load ptr, ptr %150, align 8
  %152 = load ptr, ptr %3, align 8
  %153 = getelementptr inbounds nuw %struct.slurm_cred_arg_t, ptr %152, i32 0, i32 5
  store ptr %151, ptr %153, align 8
  %154 = load ptr, ptr %5, align 8
  %155 = getelementptr inbounds nuw %struct.job_resources, ptr %154, i32 0, i32 2
  %156 = load i32, ptr %155, align 8
  %157 = load ptr, ptr %3, align 8
  %158 = getelementptr inbounds nuw %struct.slurm_cred_arg_t, ptr %157, i32 0, i32 8
  store i32 %156, ptr %158, align 8
  %159 = load ptr, ptr %5, align 8
  %160 = getelementptr inbounds nuw %struct.job_resources, ptr %159, i32 0, i32 3
  %161 = load ptr, ptr %160, align 8
  %162 = load ptr, ptr %3, align 8
  %163 = getelementptr inbounds nuw %struct.slurm_cred_arg_t, ptr %162, i32 0, i32 9
  store ptr %161, ptr %163, align 8
  %164 = load ptr, ptr %5, align 8
  %165 = getelementptr inbounds nuw %struct.job_resources, ptr %164, i32 0, i32 4
  %166 = load ptr, ptr %165, align 8
  %167 = load ptr, ptr %3, align 8
  %168 = getelementptr inbounds nuw %struct.slurm_cred_arg_t, ptr %167, i32 0, i32 10
  store ptr %166, ptr %168, align 8
  %169 = load ptr, ptr %5, align 8
  %170 = getelementptr inbounds nuw %struct.job_resources, ptr %169, i32 0, i32 0
  %171 = load ptr, ptr %170, align 8
  %172 = load ptr, ptr %3, align 8
  %173 = getelementptr inbounds nuw %struct.slurm_cred_arg_t, ptr %172, i32 0, i32 15
  store ptr %171, ptr %173, align 8
  %174 = load ptr, ptr %5, align 8
  %175 = getelementptr inbounds nuw %struct.job_resources, ptr %174, i32 0, i32 15
  %176 = load ptr, ptr %175, align 8
  %177 = load ptr, ptr %3, align 8
  %178 = getelementptr inbounds nuw %struct.slurm_cred_arg_t, ptr %177, i32 0, i32 19
  store ptr %176, ptr %178, align 8
  %179 = load ptr, ptr %5, align 8
  %180 = getelementptr inbounds nuw %struct.job_resources, ptr %179, i32 0, i32 12
  %181 = load i32, ptr %180, align 4
  %182 = load ptr, ptr %3, align 8
  %183 = getelementptr inbounds nuw %struct.slurm_cred_arg_t, ptr %182, i32 0, i32 24
  store i32 %181, ptr %183, align 4
  %184 = load ptr, ptr %5, align 8
  %185 = getelementptr inbounds nuw %struct.job_resources, ptr %184, i32 0, i32 17
  %186 = load ptr, ptr %185, align 8
  %187 = load ptr, ptr %3, align 8
  %188 = getelementptr inbounds nuw %struct.slurm_cred_arg_t, ptr %187, i32 0, i32 7
  store ptr %186, ptr %188, align 8
  %189 = load ptr, ptr %5, align 8
  %190 = getelementptr inbounds nuw %struct.job_resources, ptr %189, i32 0, i32 18
  %191 = load ptr, ptr %190, align 8
  %192 = load ptr, ptr %3, align 8
  %193 = getelementptr inbounds nuw %struct.slurm_cred_arg_t, ptr %192, i32 0, i32 6
  store ptr %191, ptr %193, align 8
  call void @llvm.lifetime.end.p0(i64 8, ptr %5) #9
  br label %194

194:                                              ; preds = %145, %140
  %195 = load ptr, ptr %4, align 8
  %196 = getelementptr inbounds nuw %struct.job_record, ptr %195, i32 0, i32 89
  %197 = load ptr, ptr %196, align 8
  %198 = icmp ne ptr %197, null
  br i1 %198, label %199, label %207

199:                                              ; preds = %194
  %200 = load ptr, ptr %4, align 8
  %201 = getelementptr inbounds nuw %struct.job_record, ptr %200, i32 0, i32 89
  %202 = load ptr, ptr %201, align 8
  %203 = getelementptr inbounds nuw %struct.part_record, ptr %202, i32 0, i32 34
  %204 = load ptr, ptr %203, align 8
  %205 = load ptr, ptr %3, align 8
  %206 = getelementptr inbounds nuw %struct.slurm_cred_arg_t, ptr %205, i32 0, i32 29
  store ptr %204, ptr %206, align 8
  br label %207

207:                                              ; preds = %199, %194
  ret void
}