; Function Attrs: nounwind uwtable
define dso_local void @setup_cred_arg(ptr noundef writeonly captures(none) initializes((0, 352)) %0, ptr noundef %1) local_unnamed_addr #0 {
  tail call void @llvm.memset.p0.i64(ptr noundef nonnull align 8 dereferenceable(352) %0, i8 0, i64 352, i1 false)
  %3 = getelementptr inbounds nuw i8, ptr %1, i64 400
  %4 = load ptr, ptr %3, align 8
  %5 = getelementptr inbounds nuw i8, ptr %0, i64 32
  store ptr %4, ptr %5, align 8
  %6 = getelementptr inbounds nuw i8, ptr %1, i64 344
  %7 = load i32, ptr %6, align 8
  %8 = getelementptr inbounds nuw i8, ptr %0, i64 28
  store i32 %7, ptr %8, align 4
  %9 = getelementptr inbounds nuw i8, ptr %1, i64 8
  %10 = load ptr, ptr %9, align 8
  %11 = getelementptr inbounds nuw i8, ptr %0, i64 96
  store ptr %10, ptr %11, align 8
  %12 = getelementptr inbounds nuw i8, ptr %1, i64 24
  %13 = load ptr, ptr %12, align 8
  %14 = getelementptr inbounds nuw i8, ptr %0, i64 104
  store ptr %13, ptr %14, align 8
  %15 = getelementptr inbounds nuw i8, ptr %1, i64 144
  %16 = load ptr, ptr %15, align 8
  %17 = getelementptr inbounds nuw i8, ptr %0, i64 112
  store ptr %16, ptr %17, align 8
  %18 = getelementptr inbounds nuw i8, ptr %1, i64 232
  %19 = load i64, ptr %18, align 8
  %20 = getelementptr inbounds nuw i8, ptr %0, i64 144
  store i64 %19, ptr %20, align 8
  %21 = getelementptr inbounds nuw i8, ptr %1, i64 256
  %22 = load ptr, ptr %21, align 8
  %23 = getelementptr inbounds nuw i8, ptr %0, i64 152
  store ptr %22, ptr %23, align 8
  %24 = getelementptr inbounds nuw i8, ptr %1, i64 312
  %25 = load ptr, ptr %24, align 8
  %26 = getelementptr inbounds nuw i8, ptr %0, i64 216
  store ptr %25, ptr %26, align 8
  %27 = getelementptr inbounds nuw i8, ptr %1, i64 464
  %28 = load ptr, ptr %27, align 8
  %29 = getelementptr inbounds nuw i8, ptr %0, i64 168
  store ptr %28, ptr %29, align 8
  %30 = getelementptr inbounds nuw i8, ptr %1, i64 576
  %31 = load ptr, ptr %30, align 8
  %32 = getelementptr inbounds nuw i8, ptr %0, i64 200
  store ptr %31, ptr %32, align 8
  %33 = getelementptr inbounds nuw i8, ptr %1, i64 816
  %34 = load ptr, ptr %33, align 8
  %35 = getelementptr inbounds nuw i8, ptr %0, i64 232
  store ptr %34, ptr %35, align 8
  %36 = getelementptr inbounds nuw i8, ptr %1, i64 786
  %37 = load i16, ptr %36, align 2
  %38 = getelementptr inbounds nuw i8, ptr %0, i64 240
  store i16 %37, ptr %38, align 8
  %39 = getelementptr inbounds nuw i8, ptr %1, i64 880
  %40 = load ptr, ptr %39, align 8
  %41 = getelementptr inbounds nuw i8, ptr %0, i64 248
  store ptr %40, ptr %41, align 8
  %42 = getelementptr inbounds nuw i8, ptr %1, i64 912
  %43 = load i64, ptr %42, align 8
  %44 = getelementptr inbounds nuw i8, ptr %0, i64 256
  store i64 %43, ptr %44, align 8
  %45 = getelementptr inbounds nuw i8, ptr %1, i64 1096
  %46 = load i32, ptr %45, align 8
  %47 = getelementptr inbounds nuw i8, ptr %0, i64 24
  store i32 %46, ptr %47, align 8
  %48 = getelementptr inbounds nuw i8, ptr %1, i64 216
  %49 = load ptr, ptr %48, align 8
  %.not = icmp eq ptr %49, null
  br i1 %.not, label %80, label %50

50:                                               ; preds = %2
  %51 = getelementptr inbounds nuw i8, ptr %49, i64 216
  %52 = load ptr, ptr %51, align 8
  %53 = getelementptr inbounds nuw i8, ptr %0, i64 120
  store ptr %52, ptr %53, align 8
  %54 = load ptr, ptr %48, align 8
  %55 = getelementptr inbounds nuw i8, ptr %54, i64 66
  %56 = load i16, ptr %55, align 2
  %57 = getelementptr inbounds nuw i8, ptr %0, i64 136
  store i16 %56, ptr %57, align 8
  %58 = load ptr, ptr %48, align 8
  %59 = getelementptr inbounds nuw i8, ptr %58, i64 296
  %60 = load i32, ptr %59, align 8
  %61 = getelementptr inbounds nuw i8, ptr %0, i64 208
  store i32 %60, ptr %61, align 8
  %62 = tail call zeroext i16 @get_job_share_value(ptr noundef nonnull %1) #11
  %63 = getelementptr inbounds nuw i8, ptr %0, i64 212
  store i16 %62, ptr %63, align 4
  %64 = load ptr, ptr %48, align 8
  %65 = getelementptr inbounds nuw i8, ptr %64, i64 432
  %66 = load ptr, ptr %65, align 8
  %67 = getelementptr inbounds nuw i8, ptr %0, i64 264
  store ptr %66, ptr %67, align 8
  %68 = load ptr, ptr %48, align 8
  %69 = getelementptr inbounds nuw i8, ptr %68, i64 440
  %70 = load ptr, ptr %69, align 8
  %71 = getelementptr inbounds nuw i8, ptr %0, i64 272
  store ptr %70, ptr %71, align 8
  %72 = load ptr, ptr %48, align 8
  %73 = getelementptr inbounds nuw i8, ptr %72, i64 448
  %74 = load ptr, ptr %73, align 8
  %75 = getelementptr inbounds nuw i8, ptr %0, i64 280
  store ptr %74, ptr %75, align 8
  %76 = load ptr, ptr %48, align 8
  %77 = getelementptr inbounds nuw i8, ptr %76, i64 496
  %78 = load i16, ptr %77, align 8
  %79 = getelementptr inbounds nuw i8, ptr %0, i64 288
  store i16 %78, ptr %79, align 8
  br label %80

80:                                               ; preds = %50, %2
  %81 = getelementptr inbounds nuw i8, ptr %1, i64 440
  %82 = load ptr, ptr %81, align 8
  %.not73 = icmp eq ptr %82, null
  br i1 %.not73, label %110, label %83

83:                                               ; preds = %80
  %84 = getelementptr inbounds nuw i8, ptr %82, i64 56
  %85 = load ptr, ptr %84, align 8
  %86 = getelementptr inbounds nuw i8, ptr %0, i64 48
  store ptr %85, ptr %86, align 8
  %87 = getelementptr inbounds nuw i8, ptr %82, i64 16
  %88 = load i32, ptr %87, align 8
  %89 = getelementptr inbounds nuw i8, ptr %0, i64 72
  store i32 %88, ptr %89, align 8
  %90 = getelementptr inbounds nuw i8, ptr %82, i64 24
  %91 = load ptr, ptr %90, align 8
  %92 = getelementptr inbounds nuw i8, ptr %0, i64 80
  store ptr %91, ptr %92, align 8
  %93 = getelementptr inbounds nuw i8, ptr %82, i64 32
  %94 = load ptr, ptr %93, align 8
  %95 = getelementptr inbounds nuw i8, ptr %0, i64 88
  store ptr %94, ptr %95, align 8
  %96 = load ptr, ptr %82, align 8
  %97 = getelementptr inbounds nuw i8, ptr %0, i64 128
  store ptr %96, ptr %97, align 8
  %98 = getelementptr inbounds nuw i8, ptr %82, i64 112
  %99 = load ptr, ptr %98, align 8
  %100 = getelementptr inbounds nuw i8, ptr %0, i64 160
  store ptr %99, ptr %100, align 8
  %101 = getelementptr inbounds nuw i8, ptr %82, i64 92
  %102 = load i32, ptr %101, align 4
  %103 = getelementptr inbounds nuw i8, ptr %0, i64 196
  store i32 %102, ptr %103, align 4
  %104 = getelementptr inbounds nuw i8, ptr %82, i64 128
  %105 = load ptr, ptr %104, align 8
  %106 = getelementptr inbounds nuw i8, ptr %0, i64 64
  store ptr %105, ptr %106, align 8
  %107 = getelementptr inbounds nuw i8, ptr %82, i64 136
  %108 = load ptr, ptr %107, align 8
  %109 = getelementptr inbounds nuw i8, ptr %0, i64 56
  store ptr %108, ptr %109, align 8
  br label %110

110:                                              ; preds = %83, %80
  %111 = getelementptr inbounds nuw i8, ptr %1, i64 672
  %112 = load ptr, ptr %111, align 8
  %.not74 = icmp eq ptr %112, null
  br i1 %.not74, label %117, label %113

113:                                              ; preds = %110
  %114 = getelementptr inbounds nuw i8, ptr %112, i64 232
  %115 = load ptr, ptr %114, align 8
  %116 = getelementptr inbounds nuw i8, ptr %0, i64 224
  store ptr %115, ptr %116, align 8
  br label %117

117:                                              ; preds = %113, %110
  ret void
}